target datalayout = "e-m:e-p270:32:32-p271:32:32-p272:64:64-i64:64-i128:128-f80:128-n8:16:32:64-S128"
target triple = "x86_64-pc-linux-gnu"

%struct.dt_import_metadata_t = type { ptr, ptr, ptr, ptr, ptr }
%struct._GtkTreeIter = type { i32, ptr, ptr, ptr }

@.str.12 = private unnamed_addr constant [25 x i8] c"ui_last/import_last_tags\00", align 1

; Function Attrs: nounwind uwtable
define internal void @_import_tags_presets_changed(ptr noundef %0, ptr noundef %1) #0 {
  %3 = alloca ptr, align 8
  %4 = alloca ptr, align 8
  %5 = alloca %struct._GtkTreeIter, align 8
  %6 = alloca ptr, align 8
  %7 = alloca ptr, align 8
  %8 = alloca ptr, align 8
  store ptr %0, ptr %3, align 8, !tbaa !11
  store ptr %1, ptr %4, align 8, !tbaa !6
  call void @llvm.lifetime.start.p0(i64 32, ptr %5) #7
  %9 = load ptr, ptr %3, align 8, !tbaa !11
  %10 = call i64 @gtk_combo_box_get_type() #8
  %11 = call ptr @g_type_check_instance_cast(ptr noundef %9, i64 noundef %10)
  %12 = call i32 @gtk_combo_box_get_active_iter(ptr noundef %11, ptr noundef %5)
  %13 = icmp eq i32 %12, 1
  br i1 %13, label %14, label %38

14:                                               ; preds = %2
  call void @llvm.lifetime.start.p0(i64 8, ptr %6) #7
  %15 = load ptr, ptr %3, align 8, !tbaa !11
  %16 = call i64 @gtk_combo_box_get_type() #8
  %17 = call ptr @g_type_check_instance_cast(ptr noundef %15, i64 noundef %16)
  %18 = call ptr @gtk_combo_box_get_model(ptr noundef %17)
  store ptr %18, ptr %6, align 8, !tbaa !89
  call void @llvm.lifetime.start.p0(i64 8, ptr %7) #7
  %19 = load ptr, ptr %6, align 8, !tbaa !89
  call void (ptr, ptr, ...) @gtk_tree_model_get(ptr noundef %19, ptr noundef %5, i32 noundef 1, ptr noundef %7, i32 noundef -1)
  call void @llvm.lifetime.start.p0(i64 8, ptr %8) #7
  %20 = load ptr, ptr %4, align 8, !tbaa !6
  %21 = getelementptr inbounds nuw %struct.dt_import_metadata_t, ptr %20, i32 0, i32 2
  %22 = load ptr, ptr %21, align 8, !tbaa !13
  %23 = call i64 @gtk_grid_get_type() #8
  %24 = call ptr @g_type_check_instance_cast(ptr noundef %22, i64 noundef %23)
  %25 = call ptr @gtk_grid_get_child_at(ptr noundef %24, i32 noundef 1, i32 noundef 11)
  store ptr %25, ptr %8, align 8, !tbaa !11
  %26 = load ptr, ptr %8, align 8, !tbaa !11
  %27 = load ptr, ptr %4, align 8, !tbaa !6
  %28 = call i32 @g_signal_handlers_block_matched(ptr noundef %26, i32 noundef 24, i32 noundef 0, i32 noundef 0, ptr noundef null, ptr noundef @_import_tags_changed, ptr noundef %27)
  %29 = load ptr, ptr %8, align 8, !tbaa !11
  %30 = call i64 @gtk_entry_get_type() #8
  %31 = call ptr @g_type_check_instance_cast(ptr noundef %29, i64 noundef %30)
  %32 = load ptr, ptr %7, align 8, !tbaa !65
  call void @gtk_entry_set_text(ptr noundef %31, ptr noundef %32)
  %33 = load ptr, ptr %8, align 8, !tbaa !11
  %34 = load ptr, ptr %4, align 8, !tbaa !6
  %35 = call i32 @g_signal_handlers_unblock_matched(ptr noundef %33, i32 noundef 24, i32 noundef 0, i32 noundef 0, ptr noundef null, ptr noundef @_import_tags_changed, ptr noundef %34)
  %36 = load ptr, ptr %7, align 8, !tbaa !65
  call void @dt_conf_set_string(ptr noundef @.str.12, ptr noundef %36)
  %37 = load ptr, ptr %7, align 8, !tbaa !65
  call void @g_free(ptr noundef %37)
  call void @llvm.lifetime.end.p0(i64 8, ptr %8) #7
  call void @llvm.lifetime.end.p0(i64 8, ptr %7) #7
  call void @llvm.lifetime.end.p0(i64 8, ptr %6) #7
  br label %38

38:                                               ; preds = %14, %2
  call void @llvm.lifetime.end.p0(i64 32, ptr %5) #7
  ret void
}