; Function Attrs: nounwind uwtable
define internal void @_import_tags_presets_changed(ptr noundef %0, ptr noundef %1) #0 {
  %3 = alloca %struct._GtkTreeIter, align 8
  %4 = alloca ptr, align 8
  call void @llvm.lifetime.start.p0(i64 32, ptr nonnull %3) #10
  %5 = tail call i64 @gtk_combo_box_get_type() #11
  %6 = tail call ptr @g_type_check_instance_cast(ptr noundef %0, i64 noundef %5) #10
  %7 = call i32 @gtk_combo_box_get_active_iter(ptr noundef %6, ptr noundef nonnull %3) #10
  %8 = icmp eq i32 %7, 1
  br i1 %8, label %9, label %24

9:                                                ; preds = %2
  %10 = call ptr @g_type_check_instance_cast(ptr noundef %0, i64 noundef %5) #10
  %11 = call ptr @gtk_combo_box_get_model(ptr noundef %10) #10
  call void @llvm.lifetime.start.p0(i64 8, ptr nonnull %4) #10
  call void (ptr, ptr, ...) @gtk_tree_model_get(ptr noundef %11, ptr noundef nonnull %3, i32 noundef 1, ptr noundef nonnull %4, i32 noundef -1) #10
  %12 = getelementptr inbounds nuw i8, ptr %1, i64 16
  %13 = load ptr, ptr %12, align 8, !tbaa !6
  %14 = tail call i64 @gtk_grid_get_type() #11
  %15 = call ptr @g_type_check_instance_cast(ptr noundef %13, i64 noundef %14) #10
  %16 = call ptr @gtk_grid_get_child_at(ptr noundef %15, i32 noundef 1, i32 noundef 11) #10
  %17 = call i32 @g_signal_handlers_block_matched(ptr noundef %16, i32 noundef 24, i32 noundef 0, i32 noundef 0, ptr noundef null, ptr noundef nonnull @_import_tags_changed, ptr noundef %1) #10
  %18 = tail call i64 @gtk_entry_get_type() #11
  %19 = call ptr @g_type_check_instance_cast(ptr noundef %16, i64 noundef %18) #10
  %20 = load ptr, ptr %4, align 8, !tbaa !70
  call void @gtk_entry_set_text(ptr noundef %19, ptr noundef %20) #10
  %21 = call i32 @g_signal_handlers_unblock_matched(ptr noundef %16, i32 noundef 24, i32 noundef 0, i32 noundef 0, ptr noundef null, ptr noundef nonnull @_import_tags_changed, ptr noundef %1) #10
  %22 = load ptr, ptr %4, align 8, !tbaa !70
  call void @dt_conf_set_string(ptr noundef nonnull @.str.12, ptr noundef %22) #10
  %23 = load ptr, ptr %4, align 8, !tbaa !70
  call void @g_free(ptr noundef %23) #10
  call void @llvm.lifetime.end.p0(i64 8, ptr nonnull %4) #10
  br label %24

24:                                               ; preds = %9, %2
  call void @llvm.lifetime.end.p0(i64 32, ptr nonnull %3) #10
  ret void
}